target datalayout = "e-m:e-p270:32:32-p271:32:32-p272:64:64-i64:64-i128:128-f80:128-n8:16:32:64-S128"
target triple = "x86_64-pc-linux-gnu"

%struct.AVFilterContext = type { ptr, ptr, ptr, ptr, ptr, i32, ptr, ptr, i32, ptr, ptr, i32, i32, ptr, ptr, ptr, ptr, i32, ptr, i32, i32 }
%struct.NormalizeContext = type { ptr, [4 x i8], [4 x i8], i32, float, float, [4 x i8], i32, [4 x i32], [4 x i32], i32, i32, i32, i32, [3 x %struct.NormalizeHistory], [3 x %struct.NormalizeHistory], ptr, [3 x [65536 x i16]], ptr, ptr }
%struct.NormalizeHistory = type { ptr, i64 }
%struct.AVFilterLink = type { ptr, ptr, ptr, ptr, i32, i32, i32, i32, %struct.AVRational, i32, i32, i32, %struct.AVChannelLayout, %struct.AVRational, ptr, i32, %struct.AVFilterFormatsConfig, %struct.AVFilterFormatsConfig }
%struct.AVChannelLayout = type { i32, i32, %union.anon.1, ptr }
%union.anon.1 = type { i64 }
%struct.AVRational = type { i32, i32 }
%struct.AVFilterFormatsConfig = type { ptr, ptr, ptr, ptr, ptr }
%struct.AVPixFmtDescriptor = type { ptr, i8, i8, i8, i64, [4 x %struct.AVComponentDescriptor], ptr }
%struct.AVComponentDescriptor = type { i32, i32, i32, i32, i32 }

; Function Attrs: nounwind uwtable
define internal i32 @config_input(ptr noundef %0) #2 {
  %2 = alloca i32, align 4
  %3 = alloca ptr, align 8
  %4 = alloca ptr, align 8
  %5 = alloca ptr, align 8
  %6 = alloca i32, align 4
  %7 = alloca i32, align 4
  %8 = alloca i32, align 4
  %9 = alloca i32, align 4
  store ptr %0, ptr %3, align 8, !tbaa !24
  call void @llvm.lifetime.start.p0(i64 8, ptr %4) #6
  %10 = load ptr, ptr %3, align 8, !tbaa !24
  %11 = getelementptr inbounds nuw %struct.AVFilterLink, ptr %10, i32 0, i32 2
  %12 = load ptr, ptr %11, align 8, !tbaa !28
  %13 = getelementptr inbounds nuw %struct.AVFilterContext, ptr %12, i32 0, i32 9
  %14 = load ptr, ptr %13, align 8, !tbaa !9
  store ptr %14, ptr %4, align 8, !tbaa !22
  call void @llvm.lifetime.start.p0(i64 8, ptr %5) #6
  %15 = load ptr, ptr %3, align 8, !tbaa !24
  %16 = getelementptr inbounds nuw %struct.AVFilterLink, ptr %15, i32 0, i32 5
  %17 = load i32, ptr %16, align 4, !tbaa !41
  %18 = call ptr @av_pix_fmt_desc_get(i32 noundef %17)
  store ptr %18, ptr %5, align 8, !tbaa !42
  call void @llvm.lifetime.start.p0(i64 4, ptr %6) #6
  call void @llvm.lifetime.start.p0(i64 4, ptr %7) #6
  call void @llvm.lifetime.start.p0(i64 4, ptr %8) #6
  %19 = load ptr, ptr %4, align 8, !tbaa !22
  %20 = getelementptr inbounds nuw %struct.NormalizeContext, ptr %19, i32 0, i32 6
  %21 = getelementptr inbounds [4 x i8], ptr %20, i64 0, i64 0
  %22 = load ptr, ptr %3, align 8, !tbaa !24
  %23 = getelementptr inbounds nuw %struct.AVFilterLink, ptr %22, i32 0, i32 5
  %24 = load i32, ptr %23, align 4, !tbaa !41
  %25 = call i32 @ff_fill_rgba_map(ptr noundef %21, i32 noundef %24)
  %26 = load ptr, ptr %5, align 8, !tbaa !42
  %27 = getelementptr inbounds nuw %struct.AVPixFmtDescriptor, ptr %26, i32 0, i32 5
  %28 = getelementptr inbounds [4 x %struct.AVComponentDescriptor], ptr %27, i64 0, i64 0
  %29 = getelementptr inbounds nuw %struct.AVComponentDescriptor, ptr %28, i32 0, i32 4
  %30 = load i32, ptr %29, align 8, !tbaa !44
  %31 = load ptr, ptr %4, align 8, !tbaa !22
  %32 = getelementptr inbounds nuw %struct.NormalizeContext, ptr %31, i32 0, i32 7
  store i32 %30, ptr %32, align 8, !tbaa !46
  %33 = load ptr, ptr %4, align 8, !tbaa !22
  %34 = getelementptr inbounds nuw %struct.NormalizeContext, ptr %33, i32 0, i32 7
  %35 = load i32, ptr %34, align 8, !tbaa !46
  %36 = sub nsw i32 %35, 8
  %37 = shl i32 1, %36
  store i32 %37, ptr %8, align 4, !tbaa !38
  %38 = load ptr, ptr %5, align 8, !tbaa !42
  %39 = getelementptr inbounds nuw %struct.AVPixFmtDescriptor, ptr %38, i32 0, i32 1
  %40 = load i8, ptr %39, align 8, !tbaa !50
  %41 = zext i8 %40 to i32
  %42 = load ptr, ptr %4, align 8, !tbaa !22
  %43 = getelementptr inbounds nuw %struct.NormalizeContext, ptr %42, i32 0, i32 10
  store i32 %41, ptr %43, align 4, !tbaa !53
  %44 = load ptr, ptr %5, align 8, !tbaa !42
  %45 = call i32 @av_get_padded_bits_per_pixel(ptr noundef %44)
  %46 = load ptr, ptr %4, align 8, !tbaa !22
  %47 = getelementptr inbounds nuw %struct.NormalizeContext, ptr %46, i32 0, i32 7
  %48 = load i32, ptr %47, align 8, !tbaa !46
  %49 = icmp sgt i32 %48, 8
  %50 = zext i1 %49 to i32
  %51 = add nsw i32 3, %50
  %52 = ashr i32 %45, %51
  %53 = load ptr, ptr %4, align 8, !tbaa !22
  %54 = getelementptr inbounds nuw %struct.NormalizeContext, ptr %53, i32 0, i32 11
  store i32 %52, ptr %54, align 8, !tbaa !54
  %55 = load ptr, ptr %4, align 8, !tbaa !22
  %56 = getelementptr inbounds nuw %struct.NormalizeContext, ptr %55, i32 0, i32 3
  %57 = load i32, ptr %56, align 8, !tbaa !55
  %58 = add nsw i32 %57, 1
  %59 = load ptr, ptr %4, align 8, !tbaa !22
  %60 = getelementptr inbounds nuw %struct.NormalizeContext, ptr %59, i32 0, i32 12
  store i32 %58, ptr %60, align 4, !tbaa !56
  %61 = load ptr, ptr %4, align 8, !tbaa !22
  %62 = getelementptr inbounds nuw %struct.NormalizeContext, ptr %61, i32 0, i32 12
  %63 = load i32, ptr %62, align 4, !tbaa !56
  %64 = mul nsw i32 %63, 6
  %65 = sext i32 %64 to i64
  %66 = mul i64 %65, 2
  %67 = call noalias ptr @av_malloc(i64 noundef %66)
  %68 = load ptr, ptr %4, align 8, !tbaa !22
  %69 = getelementptr inbounds nuw %struct.NormalizeContext, ptr %68, i32 0, i32 16
  store ptr %67, ptr %69, align 8, !tbaa !57
  %70 = load ptr, ptr %4, align 8, !tbaa !22
  %71 = getelementptr inbounds nuw %struct.NormalizeContext, ptr %70, i32 0, i32 16
  %72 = load ptr, ptr %71, align 8, !tbaa !57
  %73 = icmp eq ptr %72, null
  br i1 %73, label %74, label %75

74:                                               ; preds = %1
  store i32 -12, ptr %2, align 4
  store i32 1, ptr %9, align 4
  br label %207

75:                                               ; preds = %1
  store i32 0, ptr %6, align 4, !tbaa !38
  br label %76

76:                                               ; preds = %171, %75
  %77 = load i32, ptr %6, align 4, !tbaa !38
  %78 = icmp slt i32 %77, 3
  br i1 %78, label %79, label %174

79:                                               ; preds = %76
  %80 = load ptr, ptr %4, align 8, !tbaa !22
  %81 = getelementptr inbounds nuw %struct.NormalizeContext, ptr %80, i32 0, i32 16
  %82 = load ptr, ptr %81, align 8, !tbaa !57
  %83 = load i32, ptr %6, align 4, !tbaa !38
  %84 = mul nsw i32 %83, 2
  %85 = load ptr, ptr %4, align 8, !tbaa !22
  %86 = getelementptr inbounds nuw %struct.NormalizeContext, ptr %85, i32 0, i32 12
  %87 = load i32, ptr %86, align 4, !tbaa !56
  %88 = mul nsw i32 %84, %87
  %89 = sext i32 %88 to i64
  %90 = getelementptr inbounds i16, ptr %82, i64 %89
  %91 = load ptr, ptr %4, align 8, !tbaa !22
  %92 = getelementptr inbounds nuw %struct.NormalizeContext, ptr %91, i32 0, i32 14
  %93 = load i32, ptr %6, align 4, !tbaa !38
  %94 = sext i32 %93 to i64
  %95 = getelementptr inbounds [3 x %struct.NormalizeHistory], ptr %92, i64 0, i64 %94
  %96 = getelementptr inbounds nuw %struct.NormalizeHistory, ptr %95, i32 0, i32 0
  store ptr %90, ptr %96, align 8, !tbaa !58
  %97 = load ptr, ptr %4, align 8, !tbaa !22
  %98 = getelementptr inbounds nuw %struct.NormalizeContext, ptr %97, i32 0, i32 16
  %99 = load ptr, ptr %98, align 8, !tbaa !57
  %100 = load i32, ptr %6, align 4, !tbaa !38
  %101 = mul nsw i32 %100, 2
  %102 = add nsw i32 %101, 1
  %103 = load ptr, ptr %4, align 8, !tbaa !22
  %104 = getelementptr inbounds nuw %struct.NormalizeContext, ptr %103, i32 0, i32 12
  %105 = load i32, ptr %104, align 4, !tbaa !56
  %106 = mul nsw i32 %102, %105
  %107 = sext i32 %106 to i64
  %108 = getelementptr inbounds i16, ptr %99, i64 %107
  %109 = load ptr, ptr %4, align 8, !tbaa !22
  %110 = getelementptr inbounds nuw %struct.NormalizeContext, ptr %109, i32 0, i32 15
  %111 = load i32, ptr %6, align 4, !tbaa !38
  %112 = sext i32 %111 to i64
  %113 = getelementptr inbounds [3 x %struct.NormalizeHistory], ptr %110, i64 0, i64 %112
  %114 = getelementptr inbounds nuw %struct.NormalizeHistory, ptr %113, i32 0, i32 0
  store ptr %108, ptr %114, align 8, !tbaa !58
  %115 = load i32, ptr %8, align 4, !tbaa !38
  %116 = load ptr, ptr %4, align 8, !tbaa !22
  %117 = getelementptr inbounds nuw %struct.NormalizeContext, ptr %116, i32 0, i32 1
  %118 = load i32, ptr %6, align 4, !tbaa !38
  %119 = sext i32 %118 to i64
  %120 = getelementptr inbounds [4 x i8], ptr %117, i64 0, i64 %119
  %121 = load i8, ptr %120, align 1, !tbaa !60
  %122 = zext i8 %121 to i32
  %123 = mul nsw i32 %115, %122
  %124 = load ptr, ptr %4, align 8, !tbaa !22
  %125 = getelementptr inbounds nuw %struct.NormalizeContext, ptr %124, i32 0, i32 1
  %126 = load i32, ptr %6, align 4, !tbaa !38
  %127 = sext i32 %126 to i64
  %128 = getelementptr inbounds [4 x i8], ptr %125, i64 0, i64 %127
  %129 = load i8, ptr %128, align 1, !tbaa !60
  %130 = zext i8 %129 to i32
  %131 = load ptr, ptr %4, align 8, !tbaa !22
  %132 = getelementptr inbounds nuw %struct.NormalizeContext, ptr %131, i32 0, i32 7
  %133 = load i32, ptr %132, align 8, !tbaa !46
  %134 = sub nsw i32 %133, 8
  %135 = shl i32 1, %134
  %136 = and i32 %130, %135
  %137 = add nsw i32 %123, %136
  %138 = load ptr, ptr %4, align 8, !tbaa !22
  %139 = getelementptr inbounds nuw %struct.NormalizeContext, ptr %138, i32 0, i32 8
  %140 = load i32, ptr %6, align 4, !tbaa !38
  %141 = sext i32 %140 to i64
  %142 = getelementptr inbounds [4 x i32], ptr %139, i64 0, i64 %141
  store i32 %137, ptr %142, align 4, !tbaa !38
  %143 = load i32, ptr %8, align 4, !tbaa !38
  %144 = load ptr, ptr %4, align 8, !tbaa !22
  %145 = getelementptr inbounds nuw %struct.NormalizeContext, ptr %144, i32 0, i32 2
  %146 = load i32, ptr %6, align 4, !tbaa !38
  %147 = sext i32 %146 to i64
  %148 = getelementptr inbounds [4 x i8], ptr %145, i64 0, i64 %147
  %149 = load i8, ptr %148, align 1, !tbaa !60
  %150 = zext i8 %149 to i32
  %151 = mul nsw i32 %143, %150
  %152 = load ptr, ptr %4, align 8, !tbaa !22
  %153 = getelementptr inbounds nuw %struct.NormalizeContext, ptr %152, i32 0, i32 2
  %154 = load i32, ptr %6, align 4, !tbaa !38
  %155 = sext i32 %154 to i64
  %156 = getelementptr inbounds [4 x i8], ptr %153, i64 0, i64 %155
  %157 = load i8, ptr %156, align 1, !tbaa !60
  %158 = zext i8 %157 to i32
  %159 = load ptr, ptr %4, align 8, !tbaa !22
  %160 = getelementptr inbounds nuw %struct.NormalizeContext, ptr %159, i32 0, i32 7
  %161 = load i32, ptr %160, align 8, !tbaa !46
  %162 = sub nsw i32 %161, 8
  %163 = shl i32 1, %162
  %164 = and i32 %158, %163
  %165 = add nsw i32 %151, %164
  %166 = load ptr, ptr %4, align 8, !tbaa !22
  %167 = getelementptr inbounds nuw %struct.NormalizeContext, ptr %166, i32 0, i32 9
  %168 = load i32, ptr %6, align 4, !tbaa !38
  %169 = sext i32 %168 to i64
  %170 = getelementptr inbounds [4 x i32], ptr %167, i64 0, i64 %169
  store i32 %165, ptr %170, align 4, !tbaa !38
  br label %171

171:                                              ; preds = %79
  %172 = load i32, ptr %6, align 4, !tbaa !38
  %173 = add nsw i32 %172, 1
  store i32 %173, ptr %6, align 4, !tbaa !38
  br label %76, !llvm.loop !61

174:                                              ; preds = %76
  %175 = load ptr, ptr %5, align 8, !tbaa !42
  %176 = getelementptr inbounds nuw %struct.AVPixFmtDescriptor, ptr %175, i32 0, i32 4
  %177 = load i64, ptr %176, align 8, !tbaa !63
  %178 = and i64 %177, 16
  %179 = trunc i64 %178 to i32
  store i32 %179, ptr %7, align 4, !tbaa !38
  %180 = load ptr, ptr %4, align 8, !tbaa !22
  %181 = getelementptr inbounds nuw %struct.NormalizeContext, ptr %180, i32 0, i32 7
  %182 = load i32, ptr %181, align 8, !tbaa !46
  %183 = icmp sle i32 %182, 8
  br i1 %183, label %184, label %195

184:                                              ; preds = %174
  %185 = load i32, ptr %7, align 4, !tbaa !38
  %186 = icmp ne i32 %185, 0
  %187 = select i1 %186, ptr @find_min_max_planar, ptr @find_min_max
  %188 = load ptr, ptr %4, align 8, !tbaa !22
  %189 = getelementptr inbounds nuw %struct.NormalizeContext, ptr %188, i32 0, i32 18
  store ptr %187, ptr %189, align 8, !tbaa !64
  %190 = load i32, ptr %7, align 4, !tbaa !38
  %191 = icmp ne i32 %190, 0
  %192 = select i1 %191, ptr @process_planar, ptr @process
  %193 = load ptr, ptr %4, align 8, !tbaa !22
  %194 = getelementptr inbounds nuw %struct.NormalizeContext, ptr %193, i32 0, i32 19
  store ptr %192, ptr %194, align 8, !tbaa !65
  br label %206

195:                                              ; preds = %174
  %196 = load i32, ptr %7, align 4, !tbaa !38
  %197 = icmp ne i32 %196, 0
  %198 = select i1 %197, ptr @find_min_max_planar_16, ptr @find_min_max_16
  %199 = load ptr, ptr %4, align 8, !tbaa !22
  %200 = getelementptr inbounds nuw %struct.NormalizeContext, ptr %199, i32 0, i32 18
  store ptr %198, ptr %200, align 8, !tbaa !64
  %201 = load i32, ptr %7, align 4, !tbaa !38
  %202 = icmp ne i32 %201, 0
  %203 = select i1 %202, ptr @process_planar_16, ptr @process_16
  %204 = load ptr, ptr %4, align 8, !tbaa !22
  %205 = getelementptr inbounds nuw %struct.NormalizeContext, ptr %204, i32 0, i32 19
  store ptr %203, ptr %205, align 8, !tbaa !65
  br label %206

206:                                              ; preds = %195, %184
  store i32 0, ptr %2, align 4
  store i32 1, ptr %9, align 4
  br label %207

207:                                              ; preds = %206, %74
  call void @llvm.lifetime.end.p0(i64 4, ptr %8) #6
  call void @llvm.lifetime.end.p0(i64 4, ptr %7) #6
  call void @llvm.lifetime.end.p0(i64 4, ptr %6) #6
  call void @llvm.lifetime.end.p0(i64 8, ptr %5) #6
  call void @llvm.lifetime.end.p0(i64 8, ptr %4) #6
  %208 = load i32, ptr %2, align 4
  ret i32 %208
}