; Function Attrs: nounwind uwtable
define internal range(i32 -12, 1) i32 @config_input(ptr noundef readonly captures(none) %0) #2 {
  %2 = getelementptr inbounds nuw i8, ptr %0, i64 16
  %3 = load ptr, ptr %2, align 8, !tbaa !22
  %4 = getelementptr inbounds nuw i8, ptr %3, i64 72
  %5 = load ptr, ptr %4, align 8, !tbaa !4
  %6 = getelementptr inbounds nuw i8, ptr %0, i64 36
  %7 = load i32, ptr %6, align 4, !tbaa !64
  %8 = tail call ptr @av_pix_fmt_desc_get(i32 noundef %7) #8
  %9 = getelementptr inbounds nuw i8, ptr %5, i64 28
  %10 = load i32, ptr %6, align 4, !tbaa !64
  %11 = tail call i32 @ff_fill_rgba_map(ptr noundef nonnull %9, i32 noundef %10) #8
  %12 = getelementptr inbounds nuw i8, ptr %8, i64 40
  %13 = load i32, ptr %12, align 8, !tbaa !65
  %14 = getelementptr inbounds nuw i8, ptr %5, i64 32
  store i32 %13, ptr %14, align 8, !tbaa !60
  %15 = add nsw i32 %13, -8
  %16 = getelementptr inbounds nuw i8, ptr %8, i64 8
  %17 = load i8, ptr %16, align 8, !tbaa !67
  %18 = zext i8 %17 to i32
  %19 = getelementptr inbounds nuw i8, ptr %5, i64 68
  store i32 %18, ptr %19, align 4, !tbaa !69
  %20 = tail call i32 @av_get_padded_bits_per_pixel(ptr noundef %8) #8
  %21 = load i32, ptr %14, align 8, !tbaa !60
  %22 = icmp sgt i32 %21, 8
  %23 = select i1 %22, i32 4, i32 3
  %24 = ashr i32 %20, %23
  %25 = getelementptr inbounds nuw i8, ptr %5, i64 72
  store i32 %24, ptr %25, align 8, !tbaa !70
  %26 = getelementptr inbounds nuw i8, ptr %5, i64 16
  %27 = load i32, ptr %26, align 8, !tbaa !71
  %28 = add nsw i32 %27, 1
  %29 = getelementptr inbounds nuw i8, ptr %5, i64 76
  store i32 %28, ptr %29, align 4, !tbaa !42
  %30 = mul nsw i32 %28, 6
  %31 = sext i32 %30 to i64
  %32 = shl nsw i64 %31, 1
  %33 = tail call noalias ptr @av_malloc(i64 noundef %32) #8
  %34 = getelementptr inbounds nuw i8, ptr %5, i64 184
  store ptr %33, ptr %34, align 8, !tbaa !72
  %35 = icmp eq ptr %33, null
  br i1 %35, label %86, label %.preheader

.preheader:                                       ; preds = %1
  %36 = getelementptr inbounds nuw i8, ptr %5, i64 88
  %37 = getelementptr inbounds nuw i8, ptr %5, i64 136
  %38 = getelementptr inbounds nuw i8, ptr %5, i64 8
  %39 = load i32, ptr %14, align 8, !tbaa !60
  %40 = add nsw i32 %39, -8
  %41 = shl nuw i32 1, %40
  %42 = getelementptr inbounds nuw i8, ptr %5, i64 36
  %43 = getelementptr inbounds nuw i8, ptr %5, i64 12
  %44 = getelementptr inbounds nuw i8, ptr %5, i64 52
  br label %45

45:                                               ; preds = %.preheader, %45
  %indvars.iv = phi i64 [ 0, %.preheader ], [ %indvars.iv.next, %45 ]
  %46 = shl nuw nsw i64 %indvars.iv, 1
  %47 = load i32, ptr %29, align 4, !tbaa !42
  %48 = trunc nuw nsw i64 %46 to i32
  %49 = mul nsw i32 %47, %48
  %50 = sext i32 %49 to i64
  %51 = getelementptr inbounds i16, ptr %33, i64 %50
  %52 = getelementptr inbounds nuw [3 x %struct.NormalizeHistory], ptr %36, i64 0, i64 %indvars.iv
  store ptr %51, ptr %52, align 8, !tbaa !43
  %53 = trunc i64 %46 to i32
  %54 = or disjoint i32 %53, 1
  %55 = mul nsw i32 %47, %54
  %56 = sext i32 %55 to i64
  %57 = getelementptr inbounds i16, ptr %33, i64 %56
  %58 = getelementptr inbounds nuw [3 x %struct.NormalizeHistory], ptr %37, i64 0, i64 %indvars.iv
  store ptr %57, ptr %58, align 8, !tbaa !43
  %59 = getelementptr inbounds nuw [4 x i8], ptr %38, i64 0, i64 %indvars.iv
  %60 = load i8, ptr %59, align 1, !tbaa !73
  %61 = zext i8 %60 to i32
  %62 = shl i32 %61, %15
  %63 = and i32 %41, %61
  %64 = add nsw i32 %63, %62
  %65 = getelementptr inbounds nuw [4 x i32], ptr %42, i64 0, i64 %indvars.iv
  store i32 %64, ptr %65, align 4, !tbaa !57
  %66 = getelementptr inbounds nuw [4 x i8], ptr %43, i64 0, i64 %indvars.iv
  %67 = load i8, ptr %66, align 1, !tbaa !73
  %68 = zext i8 %67 to i32
  %69 = shl i32 %68, %15
  %70 = and i32 %41, %68
  %71 = add nsw i32 %69, %70
  %72 = getelementptr inbounds nuw [4 x i32], ptr %44, i64 0, i64 %indvars.iv
  store i32 %71, ptr %72, align 4, !tbaa !57
  %indvars.iv.next = add nuw nsw i64 %indvars.iv, 1
  %exitcond.not = icmp eq i64 %indvars.iv.next, 3
  br i1 %exitcond.not, label %73, label %45, !llvm.loop !74

73:                                               ; preds = %45
  %74 = getelementptr inbounds nuw i8, ptr %8, i64 16
  %75 = load i64, ptr %74, align 8, !tbaa !75
  %76 = icmp slt i32 %39, 9
  %77 = and i64 %75, 16
  %.not56 = icmp eq i64 %77, 0
  %78 = getelementptr inbounds nuw i8, ptr %5, i64 393408
  %79 = getelementptr inbounds nuw i8, ptr %5, i64 393416
  br i1 %76, label %80, label %83

80:                                               ; preds = %73
  %81 = select i1 %.not56, ptr @find_min_max, ptr @find_min_max_planar
  store ptr %81, ptr %78, align 8, !tbaa !37
  %82 = select i1 %.not56, ptr @process, ptr @process_planar
  br label %.sink.split

83:                                               ; preds = %73
  %84 = select i1 %.not56, ptr @find_min_max_16, ptr @find_min_max_planar_16
  store ptr %84, ptr %78, align 8, !tbaa !37
  %85 = select i1 %.not56, ptr @process_16, ptr @process_planar_16
  br label %.sink.split

.sink.split:                                      ; preds = %83, %80
  %.sink = phi ptr [ %82, %80 ], [ %85, %83 ]
  store ptr %.sink, ptr %79, align 8, !tbaa !63
  br label %86

86:                                               ; preds = %.sink.split, %1
  %.0 = phi i32 [ -12, %1 ], [ 0, %.sink.split ]
  ret i32 %.0
}